; Function Attrs: nofree nosync nounwind memory(read, inaccessiblemem: none) uwtable
define internal double @lumsum(ptr noundef readonly %0, double noundef %1, double noundef %2) #7 {
  %4 = getelementptr inbounds nuw i8, ptr %0, i64 1088
  %5 = load ptr, ptr %4, align 8, !tbaa !60
  %6 = load ptr, ptr %5, align 8, !tbaa !20
  %.not.i = icmp eq ptr %6, null
  br i1 %.not.i, label %getpix_integrate.exit, label %7

7:                                                ; preds = %3
  %8 = getelementptr inbounds nuw i8, ptr %5, i64 108
  %9 = load i32, ptr %8, align 4, !tbaa !99
  %10 = getelementptr inbounds nuw i8, ptr %5, i64 104
  %11 = load i32, ptr %10, align 8, !tbaa !100
  %12 = sub nsw i32 0, %11
  %13 = sitofp i32 %12 to double
  %14 = shl nsw i32 %11, 1
  %15 = sitofp i32 %14 to double
  %16 = fcmp nsz ogt double %1, %13
  %17 = select nsz i1 %16, double %1, double %13
  %18 = fcmp nsz ogt double %17, %15
  %..i36.i = select nsz i1 %18, double %15, double %17
  %19 = tail call i64 @llvm.lrint.i64.f64(double %..i36.i)
  %20 = trunc i64 %19 to i32
  %21 = sub nsw i32 0, %9
  %22 = sitofp i32 %21 to double
  %23 = shl nsw i32 %9, 1
  %24 = sitofp i32 %23 to double
  %25 = fcmp nsz ogt double %2, %22
  %26 = select nsz i1 %25, double %2, double %22
  %27 = fcmp nsz ogt double %26, %24
  %..i.i = select nsz i1 %27, double %24, double %26
  %28 = tail call i64 @llvm.lrint.i64.f64(double %..i.i)
  %29 = trunc i64 %28 to i32
  %30 = tail call nsz fastcc double @getpix_integrate_internal(ptr noundef nonnull readonly %0, i32 noundef %20, i32 noundef %29, i32 noundef 0, i32 noundef %11, i32 noundef %9)
  br label %getpix_integrate.exit

getpix_integrate.exit:                            ; preds = %3, %7
  %.0.i = phi nsz double [ %30, %7 ], [ 0.000000e+00, %3 ]
  ret double %.0.i
}